; Function Attrs: mustprogress uwtable
define void @_ZNK10open_spiel10dark_chess14DarkChessState14ActionToStringB5cxx11Eil(ptr dead_on_unwind noalias writable sret(%"class.std::__cxx11::basic_string") align 8 %0, ptr noundef nonnull align 8 dereferenceable(496) %1, i32 %2, i64 noundef %3) unnamed_addr #4 align 2 {
  %5 = alloca i64, align 8
  %6 = alloca %"struct.open_spiel::chess::Move", align 8
  store i64 %3, ptr %5, align 8
  %7 = getelementptr inbounds nuw i8, ptr %1, i64 256
  %8 = call { i64, i32 } @_ZN10open_spiel5chess12ActionToMoveERKlRKNS0_10ChessBoardE(ptr noundef nonnull align 8 dereferenceable(8) %5, ptr noundef nonnull align 8 dereferenceable(168) %7)
  %.fca.0.extract = extractvalue { i64, i32 } %8, 0
  %.fca.1.extract = extractvalue { i64, i32 } %8, 1
  store i64 %.fca.0.extract, ptr %6, align 8
  %.sroa.2.0..sroa_idx = getelementptr inbounds nuw i8, ptr %6, i64 8
  store i32 %.fca.1.extract, ptr %.sroa.2.0..sroa_idx, align 8
  call void @_ZNK10open_spiel5chess4Move5ToSANB5cxx11ERKNS0_10ChessBoardE(ptr dead_on_unwind writable sret(%"class.std::__cxx11::basic_string") align 8 %0, ptr noundef nonnull align 4 dereferenceable(12) %6, ptr noundef nonnull align 8 dereferenceable(168) %7)
  ret void
}